target datalayout = "e-m:e-p270:32:32-p271:32:32-p272:64:64-i64:64-i128:128-f80:128-n8:16:32:64-S128"
target triple = "x86_64-pc-linux-gnu"

%"class.rocksdb::Slice" = type { ptr, i64 }

@.str = private unnamed_addr constant [1 x i8] zeroinitializer, align 1

; Function Attrs: mustprogress nounwind uwtable
define linkonce_odr void @_ZN7rocksdb5SliceC2EPKc(ptr noundef nonnull align 8 dereferenceable(16) %0, ptr noundef %1) unnamed_addr #3 comdat align 2 {
  %3 = alloca ptr, align 8
  %4 = alloca ptr, align 8
  store ptr %0, ptr %3, align 8, !tbaa !10
  store ptr %1, ptr %4, align 8, !tbaa !31
  %5 = load ptr, ptr %3, align 8
  %6 = getelementptr inbounds nuw %"class.rocksdb::Slice", ptr %5, i32 0, i32 0
  %7 = load ptr, ptr %4, align 8, !tbaa !31
  store ptr %7, ptr %6, align 8, !tbaa !13
  %8 = load ptr, ptr %4, align 8, !tbaa !31
  %9 = icmp eq ptr %8, null
  br i1 %9, label %10, label %11

10:                                               ; preds = %2
  br label %14

11:                                               ; preds = %2
  %12 = load ptr, ptr %4, align 8, !tbaa !31
  %13 = call i64 @strlen(ptr noundef %12) #20
  br label %14

14:                                               ; preds = %11, %10
  %15 = phi i64 [ 0, %10 ], [ %13, %11 ]
  %16 = getelementptr inbounds nuw %"class.rocksdb::Slice", ptr %5, i32 0, i32 1
  store i64 %15, ptr %16, align 8, !tbaa !16
  ret void
}

; Function Attrs: mustprogress uwtable
define noundef zeroext i1 @_ZN7rocksdb13ParseFileNameERKNSt7__cxx1112basic_stringIcSt11char_traitsIcESaIcEEEPmPNS_8FileTypeEPNS_11WalFileTypeE(ptr noundef nonnull align 8 dereferenceable(32) %0, ptr noundef %1, ptr noundef %2, ptr noundef %3) #5 {
  %5 = alloca ptr, align 8
  %6 = alloca ptr, align 8
  %7 = alloca ptr, align 8
  %8 = alloca ptr, align 8
  %9 = alloca %"class.rocksdb::Slice", align 8
  store ptr %0, ptr %5, align 8, !tbaa !29
  store ptr %1, ptr %6, align 8, !tbaa !69
  store ptr %2, ptr %7, align 8, !tbaa !34
  store ptr %3, ptr %8, align 8, !tbaa !34
  %10 = load ptr, ptr %5, align 8, !tbaa !29
  %11 = load ptr, ptr %6, align 8, !tbaa !69
  call void @llvm.lifetime.start.p0(i64 16, ptr %9) #4
  call void @_ZN7rocksdb5SliceC2EPKc(ptr noundef nonnull align 8 dereferenceable(16) %9, ptr noundef @.str)
  %12 = load ptr, ptr %7, align 8, !tbaa !34
  %13 = load ptr, ptr %8, align 8, !tbaa !34
  %14 = call noundef zeroext i1 @_ZN7rocksdb13ParseFileNameERKNSt7__cxx1112basic_stringIcSt11char_traitsIcESaIcEEEPmRKNS_5SliceEPNS_8FileTypeEPNS_11WalFileTypeE(ptr noundef nonnull align 8 dereferenceable(32) %10, ptr noundef %11, ptr noundef nonnull align 8 dereferenceable(16) %9, ptr noundef %12, ptr noundef %13)
  call void @llvm.lifetime.end.p0(i64 16, ptr %9) #4
  ret i1 %14
}