; Function Attrs: mustprogress uwtable
define noundef zeroext i1 @_ZN7rocksdb13ParseFileNameERKNSt7__cxx1112basic_stringIcSt11char_traitsIcESaIcEEEPmPNS_8FileTypeEPNS_11WalFileTypeE(ptr noundef nonnull readonly align 8 captures(none) dereferenceable(32) %0, ptr noundef writeonly captures(none) %1, ptr noundef writeonly captures(none) %2, ptr noundef %3) local_unnamed_addr #3 {
  %5 = alloca %"class.rocksdb::Slice", align 8
  call void @llvm.lifetime.start.p0(i64 16, ptr nonnull %5) #25
  store ptr @.str, ptr %5, align 8, !tbaa !86
  %6 = getelementptr inbounds nuw i8, ptr %5, i64 8
  store i64 0, ptr %6, align 8, !tbaa !88
  %7 = call noundef zeroext i1 @_ZN7rocksdb13ParseFileNameERKNSt7__cxx1112basic_stringIcSt11char_traitsIcESaIcEEEPmRKNS_5SliceEPNS_8FileTypeEPNS_11WalFileTypeE(ptr noundef nonnull align 8 dereferenceable(32) %0, ptr noundef %1, ptr noundef nonnull align 8 dereferenceable(16) %5, ptr noundef %2, ptr noundef %3)
  call void @llvm.lifetime.end.p0(i64 16, ptr nonnull %5) #25
  ret i1 %7
}